target datalayout = "e-m:e-p270:32:32-p271:32:32-p272:64:64-i64:64-i128:128-f80:128-n8:16:32:64-S128"
target triple = "x86_64-pc-linux-gnu"

%struct._e_prefs = type { ptr, i32, %struct.color_t, %struct.color_t, %struct.color_t, %struct.color_t, %struct.color_t, %struct.color_t, %struct.color_t, i8, i32, ptr, i32, %struct.color_t, %struct.color_t, i32, %struct.color_t, %struct.color_t, i32, %struct.color_t, %struct.color_t, %struct.color_t, %struct.color_t, ptr, ptr, i8, i8, i8, i32, i32, i32, ptr, i32, ptr, i8, i8, i8, ptr, ptr, ptr, i32, i32, i32, i32, i8, i32, i32, i32, i32, i32, ptr, i8, i8, i8, i8, i8, ptr, ptr, ptr, ptr, ptr, ptr, ptr, ptr, ptr, i8, i8, i8, i8, i32, i8, i8, i8, ptr, i32, i8, i8, i32, i8, i8, i8, i32, i8, i32, i8, i8, i8, i32, i32, i32, ptr, i8, i8, i8, i8, i8, i8, i32, i32, i8, i8, i8, i8, i32, i32, i32, i32, i8, i8, i32, i8, i8, i32, i32, i8, i8, i8, i32, i8, i8, i8 }
%struct.color_t = type { i16, i16, i16 }
%struct._GList = type { ptr, ptr, ptr }
%struct._GPtrArray = type { ptr, i32 }
%struct._extcap_info = type { ptr, ptr, ptr, ptr, ptr }

@_loaded_interfaces = internal global ptr null, align 8
@.str = private unnamed_addr constant [7 x i8] c"extcap\00", align 1
@prefs = external global %struct._e_prefs, align 8

; Function Attrs: null_pointer_is_valid sspstrong uwtable
define internal ptr @extcap_loaded_interfaces() #0 {
  %1 = alloca ptr, align 8
  %2 = load i8, ptr getelementptr inbounds nuw (%struct._e_prefs, ptr @prefs, i32 0, i32 71), align 1, !range !9, !noundef !10
  %3 = trunc i8 %2 to i1
  br i1 %3, label %4, label %5

4:                                                ; preds = %0
  store ptr null, ptr %1, align 8
  br label %7

5:                                                ; preds = %0
  call void @extcap_ensure_all_interfaces_loaded()
  %6 = load ptr, ptr @_loaded_interfaces, align 8
  store ptr %6, ptr %1, align 8
  br label %7

7:                                                ; preds = %5, %4
  %8 = load ptr, ptr %1, align 8
  ret ptr %8
}

; Function Attrs: null_pointer_is_valid sspstrong uwtable
define hidden void @extcap_get_descriptions(ptr noundef %0, ptr noundef %1) #0 {
  %3 = alloca ptr, align 8
  %4 = alloca ptr, align 8
  %5 = alloca ptr, align 8
  %6 = alloca ptr, align 8
  %7 = alloca ptr, align 8
  %8 = alloca ptr, align 8
  %9 = alloca ptr, align 8
  %10 = alloca i32, align 4
  %11 = alloca ptr, align 8
  store ptr %0, ptr %3, align 8
  store ptr %1, ptr %4, align 8
  call void @extcap_ensure_all_interfaces_loaded()
  call void @llvm.lifetime.start.p0(i64 8, ptr %5) #9
  %12 = call ptr @extcap_loaded_interfaces()
  store ptr %12, ptr %5, align 8
  call void @llvm.lifetime.start.p0(i64 8, ptr %6) #9
  %13 = call ptr @g_ptr_array_new()
  store ptr %13, ptr %6, align 8
  %14 = load ptr, ptr %5, align 8
  %15 = icmp ne ptr %14, null
  br i1 %15, label %16, label %58

16:                                               ; preds = %2
  %17 = load ptr, ptr %5, align 8
  %18 = call i32 @g_hash_table_size(ptr noundef %17)
  %19 = icmp ugt i32 %18, 0
  br i1 %19, label %20, label %58

20:                                               ; preds = %16
  call void @llvm.lifetime.start.p0(i64 8, ptr %7) #9
  %21 = load ptr, ptr %5, align 8
  %22 = call ptr @g_hash_table_get_keys(ptr noundef %21)
  store ptr %22, ptr %7, align 8
  call void @llvm.lifetime.start.p0(i64 8, ptr %8) #9
  %23 = load ptr, ptr %7, align 8
  %24 = call ptr @g_list_first(ptr noundef %23)
  store ptr %24, ptr %8, align 8
  br label %25

25:                                               ; preds = %54, %20
  %26 = load ptr, ptr %8, align 8
  %27 = icmp ne ptr %26, null
  br i1 %27, label %28, label %33

28:                                               ; preds = %25
  %29 = load ptr, ptr %8, align 8
  %30 = getelementptr inbounds nuw %struct._GList, ptr %29, i32 0, i32 0
  %31 = load ptr, ptr %30, align 8
  %32 = icmp ne ptr %31, null
  br label %33

33:                                               ; preds = %28, %25
  %34 = phi i1 [ false, %25 ], [ %32, %28 ]
  br i1 %34, label %35, label %56

35:                                               ; preds = %33
  call void @llvm.lifetime.start.p0(i64 8, ptr %9) #9
  %36 = load ptr, ptr %5, align 8
  %37 = load ptr, ptr %8, align 8
  %38 = getelementptr inbounds nuw %struct._GList, ptr %37, i32 0, i32 0
  %39 = load ptr, ptr %38, align 8
  %40 = call ptr @g_hash_table_lookup(ptr noundef %36, ptr noundef %39)
  store ptr %40, ptr %9, align 8
  %41 = load ptr, ptr %9, align 8
  %42 = icmp ne ptr %41, null
  br i1 %42, label %43, label %46

43:                                               ; preds = %35
  %44 = load ptr, ptr %6, align 8
  %45 = load ptr, ptr %9, align 8
  call void @g_ptr_array_add(ptr noundef %44, ptr noundef %45)
  br label %46

46:                                               ; preds = %43, %35
  %47 = load ptr, ptr %8, align 8
  %48 = icmp ne ptr %47, null
  br i1 %48, label %49, label %53

49:                                               ; preds = %46
  %50 = load ptr, ptr %8, align 8
  %51 = getelementptr inbounds nuw %struct._GList, ptr %50, i32 0, i32 1
  %52 = load ptr, ptr %51, align 8
  br label %54

53:                                               ; preds = %46
  br label %54

54:                                               ; preds = %53, %49
  %55 = phi ptr [ %52, %49 ], [ null, %53 ]
  store ptr %55, ptr %8, align 8
  call void @llvm.lifetime.end.p0(i64 8, ptr %9) #9
  br label %25, !llvm.loop !6

56:                                               ; preds = %33
  %57 = load ptr, ptr %7, align 8
  call void @g_list_free(ptr noundef %57)
  call void @llvm.lifetime.end.p0(i64 8, ptr %8) #9
  call void @llvm.lifetime.end.p0(i64 8, ptr %7) #9
  br label %58

58:                                               ; preds = %56, %16, %2
  %59 = load ptr, ptr %6, align 8
  call void @g_ptr_array_sort(ptr noundef %59, ptr noundef @compare_tools)
  call void @llvm.lifetime.start.p0(i64 4, ptr %10) #9
  store i32 0, ptr %10, align 4
  br label %60

60:                                               ; preds = %86, %58
  %61 = load i32, ptr %10, align 4
  %62 = load ptr, ptr %6, align 8
  %63 = getelementptr inbounds nuw %struct._GPtrArray, ptr %62, i32 0, i32 1
  %64 = load i32, ptr %63, align 8
  %65 = icmp ult i32 %61, %64
  br i1 %65, label %67, label %66

66:                                               ; preds = %60
  call void @llvm.lifetime.end.p0(i64 4, ptr %10) #9
  br label %89

67:                                               ; preds = %60
  call void @llvm.lifetime.start.p0(i64 8, ptr %11) #9
  %68 = load ptr, ptr %6, align 8
  %69 = getelementptr inbounds nuw %struct._GPtrArray, ptr %68, i32 0, i32 0
  %70 = load ptr, ptr %69, align 8
  %71 = load i32, ptr %10, align 4
  %72 = zext i32 %71 to i64
  %73 = getelementptr ptr, ptr %70, i64 %72
  %74 = load ptr, ptr %73, align 8
  store ptr %74, ptr %11, align 8
  %75 = load ptr, ptr %3, align 8
  %76 = load ptr, ptr %11, align 8
  %77 = getelementptr inbounds nuw %struct._extcap_info, ptr %76, i32 0, i32 0
  %78 = load ptr, ptr %77, align 8
  %79 = load ptr, ptr %11, align 8
  %80 = getelementptr inbounds nuw %struct._extcap_info, ptr %79, i32 0, i32 2
  %81 = load ptr, ptr %80, align 8
  %82 = load ptr, ptr %11, align 8
  %83 = getelementptr inbounds nuw %struct._extcap_info, ptr %82, i32 0, i32 1
  %84 = load ptr, ptr %83, align 8
  %85 = load ptr, ptr %4, align 8
  call void %75(ptr noundef %78, ptr noundef %81, ptr noundef @.str, ptr noundef %84, ptr noundef %85)
  call void @llvm.lifetime.end.p0(i64 8, ptr %11) #9
  br label %86

86:                                               ; preds = %67
  %87 = load i32, ptr %10, align 4
  %88 = add i32 %87, 1
  store i32 %88, ptr %10, align 4
  br label %60, !llvm.loop !8

89:                                               ; preds = %66
  %90 = load ptr, ptr %6, align 8
  %91 = call ptr @g_ptr_array_free(ptr noundef %90, i32 noundef 1)
  call void @llvm.lifetime.end.p0(i64 8, ptr %6) #9
  call void @llvm.lifetime.end.p0(i64 8, ptr %5) #9
  ret void
}