; Function Attrs: null_pointer_is_valid sspstrong uwtable
define hidden void @extcap_get_descriptions(ptr noundef readonly captures(none) %0, ptr noundef %1) local_unnamed_addr #0 {
  tail call fastcc void @extcap_ensure_all_interfaces_loaded()
  %3 = load i8, ptr getelementptr inbounds nuw (i8, ptr @prefs, i64 361), align 1, !range !6, !noundef !7
  %4 = trunc nuw i8 %3 to i1
  br i1 %4, label %extcap_loaded_interfaces.exit.thread, label %extcap_loaded_interfaces.exit

extcap_loaded_interfaces.exit.thread:             ; preds = %2
  %5 = tail call ptr @g_ptr_array_new()
  br label %20

extcap_loaded_interfaces.exit:                    ; preds = %2
  tail call fastcc void @extcap_ensure_all_interfaces_loaded()
  %6 = load ptr, ptr @_loaded_interfaces, align 8
  %7 = tail call ptr @g_ptr_array_new()
  %.not = icmp eq ptr %6, null
  br i1 %.not, label %20, label %8

8:                                                ; preds = %extcap_loaded_interfaces.exit
  %9 = tail call i32 @g_hash_table_size(ptr noundef nonnull %6)
  %.not29 = icmp eq i32 %9, 0
  br i1 %.not29, label %20, label %10

10:                                               ; preds = %8
  %11 = tail call ptr @g_hash_table_get_keys(ptr noundef nonnull %6)
  %12 = tail call ptr @g_list_first(ptr noundef %11)
  %.not3035 = icmp eq ptr %12, null
  br i1 %.not3035, label %.critedge, label %.lr.ph

.lr.ph:                                           ; preds = %10, %17
  %.036 = phi ptr [ %19, %17 ], [ %12, %10 ]
  %13 = load ptr, ptr %.036, align 8
  %.not31 = icmp eq ptr %13, null
  br i1 %.not31, label %.critedge, label %14

14:                                               ; preds = %.lr.ph
  %15 = tail call ptr @g_hash_table_lookup(ptr noundef nonnull %6, ptr noundef nonnull %13)
  %.not32 = icmp eq ptr %15, null
  br i1 %.not32, label %17, label %16

16:                                               ; preds = %14
  tail call void @g_ptr_array_add(ptr noundef %7, ptr noundef nonnull %15)
  br label %17

17:                                               ; preds = %16, %14
  %18 = getelementptr inbounds nuw i8, ptr %.036, i64 8
  %19 = load ptr, ptr %18, align 8
  %.not30 = icmp eq ptr %19, null
  br i1 %.not30, label %.critedge, label %.lr.ph, !llvm.loop !8

.critedge:                                        ; preds = %.lr.ph, %17, %10
  tail call void @g_list_free(ptr noundef %11)
  br label %20

20:                                               ; preds = %extcap_loaded_interfaces.exit.thread, %.critedge, %8, %extcap_loaded_interfaces.exit
  %21 = phi ptr [ %5, %extcap_loaded_interfaces.exit.thread ], [ %7, %.critedge ], [ %7, %8 ], [ %7, %extcap_loaded_interfaces.exit ]
  tail call void @g_ptr_array_sort(ptr noundef %21, ptr noundef nonnull @compare_tools)
  %22 = getelementptr inbounds nuw i8, ptr %21, i64 8
  %23 = load i32, ptr %22, align 8
  %.not40 = icmp eq i32 %23, 0
  br i1 %.not40, label %._crit_edge, label %.lr.ph39

._crit_edge:                                      ; preds = %.lr.ph39, %20
  %24 = tail call ptr @g_ptr_array_free(ptr noundef %21, i32 noundef 1)
  ret void

.lr.ph39:                                         ; preds = %20, %.lr.ph39
  %indvars.iv = phi i64 [ %indvars.iv.next, %.lr.ph39 ], [ 0, %20 ]
  %25 = load ptr, ptr %21, align 8
  %26 = getelementptr ptr, ptr %25, i64 %indvars.iv
  %27 = load ptr, ptr %26, align 8
  %28 = load ptr, ptr %27, align 8
  %29 = getelementptr inbounds nuw i8, ptr %27, i64 16
  %30 = load ptr, ptr %29, align 8
  %31 = getelementptr inbounds nuw i8, ptr %27, i64 8
  %32 = load ptr, ptr %31, align 8
  tail call void %0(ptr noundef %28, ptr noundef %30, ptr noundef nonnull @.str, ptr noundef %32, ptr noundef %1)
  %indvars.iv.next = add nuw nsw i64 %indvars.iv, 1
  %33 = load i32, ptr %22, align 8
  %34 = zext i32 %33 to i64
  %35 = icmp samesign ult i64 %indvars.iv.next, %34
  br i1 %35, label %.lr.ph39, label %._crit_edge, !llvm.loop !10
}